; ModuleID = '22/338.c'
source_filename = "22/338.c"
target datalayout = "e-m:e-p270:32:32-p271:32:32-p272:64:64-i64:64-f80:128-n8:16:32:64-S128"
target triple = "x86_64-pc-linux-gnu"

@.str = private unnamed_addr constant [3 x i8] c"No\00", align 1
@.str.1 = private unnamed_addr constant [3 x i8] c"%d\00", align 1

; Function Attrs: noinline nounwind uwtable
define dso_local i32 @fscan(i32* %0) #0 {
  %2 = alloca i32, align 4
  %3 = alloca i32*, align 8
  %4 = alloca i8, align 1
  store i32* %0, i32** %3, align 8
  %5 = load i32*, i32** %3, align 8
  store i32 0, i32* %5, align 4
  br label %6

6:                                                ; preds = %27, %1
  %7 = call i32 @getchar()
  %8 = trunc i32 %7 to i8
  store i8 %8, i8* %4, align 1
  %9 = load i8, i8* %4, align 1
  %10 = sext i8 %9 to i32
  %11 = icmp eq i32 %10, 10
  br i1 %11, label %12, label %13

12:                                               ; preds = %6
  store i32 0, i32* %2, align 4
  br label %32

13:                                               ; preds = %6
  %14 = load i8, i8* %4, align 1
  %15 = sext i8 %14 to i32
  %16 = icmp ne i32 %15, 44
  br i1 %16, label %17, label %26

17:                                               ; preds = %13
  %18 = load i32*, i32** %3, align 8
  %19 = load i32, i32* %18, align 4
  %20 = mul nsw i32 %19, 10
  %21 = load i8, i8* %4, align 1
  %22 = sext i8 %21 to i32
  %23 = add nsw i32 %20, %22
  %24 = sub nsw i32 %23, 48
  %25 = load i32*, i32** %3, align 8
  store i32 %24, i32* %25, align 4
  br label %26

26:                                               ; preds = %17, %13
  br label %27

27:                                               ; preds = %26
  %28 = load i8, i8* %4, align 1
  %29 = sext i8 %28 to i32
  %30 = icmp ne i32 %29, 44
  br i1 %30, label %6, label %31

31:                                               ; preds = %27
  store i32 1, i32* %2, align 4
  br label %32

32:                                               ; preds = %31, %12
  %33 = load i32, i32* %2, align 4
  ret i32 %33
}

declare dso_local i32 @getchar() #1

; Function Attrs: noinline nounwind uwtable
define dso_local i32 @main() #0 {
  %1 = alloca i32, align 4
  %2 = alloca i32, align 4
  %3 = alloca i32, align 4
  %4 = alloca i32, align 4
  %5 = alloca i32, align 4
  store i32 0, i32* %1, align 4
  store i32 -1, i32* %3, align 4
  store i32 -1, i32* %4, align 4
  %6 = call i32 @fscan(i32* %2)
  store i32 %6, i32* %5, align 4
  %7 = load i32, i32* %2, align 4
  store i32 %7, i32* %3, align 4
  br label %8

8:                                                ; preds = %30, %0
  %9 = load i32, i32* %5, align 4
  %10 = icmp ne i32 %9, 0
  br i1 %10, label %11, label %31

11:                                               ; preds = %8
  %12 = call i32 @fscan(i32* %2)
  store i32 %12, i32* %5, align 4
  %13 = load i32, i32* %2, align 4
  %14 = load i32, i32* %3, align 4
  %15 = icmp sgt i32 %13, %14
  br i1 %15, label %16, label %19

16:                                               ; preds = %11
  %17 = load i32, i32* %3, align 4
  store i32 %17, i32* %4, align 4
  %18 = load i32, i32* %2, align 4
  store i32 %18, i32* %3, align 4
  br label %30

19:                                               ; preds = %11
  %20 = load i32, i32* %2, align 4
  %21 = load i32, i32* %4, align 4
  %22 = icmp sgt i32 %20, %21
  br i1 %22, label %23, label %29

23:                                               ; preds = %19
  %24 = load i32, i32* %2, align 4
  %25 = load i32, i32* %3, align 4
  %26 = icmp ne i32 %24, %25
  br i1 %26, label %27, label %29

27:                                               ; preds = %23
  %28 = load i32, i32* %2, align 4
  store i32 %28, i32* %4, align 4
  br label %29

29:                                               ; preds = %27, %23, %19
  br label %30

30:                                               ; preds = %29, %16
  br label %8

31:                                               ; preds = %8
  %32 = load i32, i32* %4, align 4
  %33 = icmp eq i32 %32, -1
  br i1 %33, label %34, label %36

34:                                               ; preds = %31
  %35 = call i32 (i8*, ...) @printf(i8* getelementptr inbounds ([3 x i8], [3 x i8]* @.str, i64 0, i64 0))
  br label %39

36:                                               ; preds = %31
  %37 = load i32, i32* %4, align 4
  %38 = call i32 (i8*, ...) @printf(i8* getelementptr inbounds ([3 x i8], [3 x i8]* @.str.1, i64 0, i64 0), i32 %37)
  br label %39

39:                                               ; preds = %36, %34
  ret i32 1
}

declare dso_local i32 @printf(i8*, ...) #1


!llvm.module.flags = !{!0}
!llvm.ident = !{!1}

!0 = !{i32 1, !"wchar_size", i32 4}
!1 = !{!"clang version 10.0.0-4ubuntu1 "}
